; Function Attrs: mustprogress uwtable
define void @_ZN19FirewallRulesDialog38on_productComboBox_currentIndexChangedEi(ptr noundef nonnull align 8 dereferenceable(292) %0, i32 noundef %1) local_unnamed_addr #0 align 2 {
  %3 = sext i32 %1 to i64
  %4 = getelementptr inbounds i8, ptr %0, i64 176
  store i64 %3, ptr %4, align 8
  %5 = load ptr, ptr %0, align 8
  %6 = getelementptr inbounds i8, ptr %5, i64 464
  %7 = load ptr, ptr %6, align 8
  tail call void %7(ptr noundef nonnull align 8 dereferenceable(292) %0)
  ret void
}